target datalayout = "e-m:e-p270:32:32-p271:32:32-p272:64:64-i64:64-i128:128-f80:128-n8:16:32:64-S128"
target triple = "x86_64-pc-linux-gnu"

%struct.EState = type { i32, i32, ptr, ptr, ptr, i32, ptr, ptr, ptr, ptr, ptr, ptr, ptr, ptr, ptr, ptr, i32, ptr, ptr, ptr, ptr, ptr, ptr, ptr, ptr, ptr, ptr, i64, i64, i32, i32, i8, ptr, ptr, ptr, ptr, ptr, i8, i32, i32, ptr, i32, ptr, ptr, ptr, ptr }
%struct.ExprContext = type { i32, ptr, ptr, ptr, ptr, ptr, ptr, ptr, ptr, ptr, i64, i8, i64, i8, ptr, ptr, ptr, ptr }
%struct.List = type { i32, i32, i32, ptr, [0 x %union.ListCell] }
%union.ListCell = type { ptr }
%struct.ExprContext_CB = type { ptr, ptr, i64 }

@CurrentMemoryContext = external global ptr, align 8

; Function Attrs: inlinehint nounwind uwtable
define internal ptr @MemoryContextSwitchTo(ptr noundef %0) #3 {
  %2 = alloca ptr, align 8
  %3 = alloca ptr, align 8
  store ptr %0, ptr %2, align 8
  call void @llvm.lifetime.start.p0(i64 8, ptr %3) #6
  %4 = load ptr, ptr @CurrentMemoryContext, align 8
  store ptr %4, ptr %3, align 8
  %5 = load ptr, ptr %2, align 8
  store ptr %5, ptr @CurrentMemoryContext, align 8
  %6 = load ptr, ptr %3, align 8
  call void @llvm.lifetime.end.p0(i64 8, ptr %3) #6
  ret ptr %6
}

; Function Attrs: nounwind uwtable
define internal void @ShutdownExprContext(ptr noundef %0, i1 noundef zeroext %1) #0 {
  %3 = alloca ptr, align 8
  %4 = alloca i8, align 1
  %5 = alloca ptr, align 8
  %6 = alloca ptr, align 8
  %7 = alloca i32, align 4
  store ptr %0, ptr %3, align 8
  %8 = zext i1 %1 to i8
  store i8 %8, ptr %4, align 1
  call void @llvm.lifetime.start.p0(i64 8, ptr %5) #6
  call void @llvm.lifetime.start.p0(i64 8, ptr %6) #6
  %9 = load ptr, ptr %3, align 8
  %10 = getelementptr inbounds nuw %struct.ExprContext, ptr %9, i32 0, i32 17
  %11 = load ptr, ptr %10, align 8
  %12 = icmp eq ptr %11, null
  br i1 %12, label %13, label %14

13:                                               ; preds = %2
  store i32 1, ptr %7, align 4
  br label %44

14:                                               ; preds = %2
  %15 = load ptr, ptr %3, align 8
  %16 = getelementptr inbounds nuw %struct.ExprContext, ptr %15, i32 0, i32 5
  %17 = load ptr, ptr %16, align 8
  %18 = call ptr @MemoryContextSwitchTo(ptr noundef %17)
  store ptr %18, ptr %6, align 8
  br label %19

19:                                               ; preds = %39, %14
  %20 = load ptr, ptr %3, align 8
  %21 = getelementptr inbounds nuw %struct.ExprContext, ptr %20, i32 0, i32 17
  %22 = load ptr, ptr %21, align 8
  store ptr %22, ptr %5, align 8
  %23 = icmp ne ptr %22, null
  br i1 %23, label %24, label %41

24:                                               ; preds = %19
  %25 = load ptr, ptr %5, align 8
  %26 = getelementptr inbounds nuw %struct.ExprContext_CB, ptr %25, i32 0, i32 0
  %27 = load ptr, ptr %26, align 8
  %28 = load ptr, ptr %3, align 8
  %29 = getelementptr inbounds nuw %struct.ExprContext, ptr %28, i32 0, i32 17
  store ptr %27, ptr %29, align 8
  %30 = load i8, ptr %4, align 1, !range !6, !noundef !7
  %31 = trunc i8 %30 to i1
  br i1 %31, label %32, label %39

32:                                               ; preds = %24
  %33 = load ptr, ptr %5, align 8
  %34 = getelementptr inbounds nuw %struct.ExprContext_CB, ptr %33, i32 0, i32 1
  %35 = load ptr, ptr %34, align 8
  %36 = load ptr, ptr %5, align 8
  %37 = getelementptr inbounds nuw %struct.ExprContext_CB, ptr %36, i32 0, i32 2
  %38 = load i64, ptr %37, align 8
  call void %35(i64 noundef %38)
  br label %39

39:                                               ; preds = %32, %24
  %40 = load ptr, ptr %5, align 8
  call void @pfree(ptr noundef %40)
  br label %19, !llvm.loop !9

41:                                               ; preds = %19
  %42 = load ptr, ptr %6, align 8
  %43 = call ptr @MemoryContextSwitchTo(ptr noundef %42)
  store i32 0, ptr %7, align 4
  br label %44

44:                                               ; preds = %41, %13
  call void @llvm.lifetime.end.p0(i64 8, ptr %6) #6
  call void @llvm.lifetime.end.p0(i64 8, ptr %5) #6
  %45 = load i32, ptr %7, align 4
  switch i32 %45, label %47 [
    i32 0, label %46
    i32 1, label %46
  ]

46:                                               ; preds = %44, %44
  ret void

47:                                               ; preds = %44
  unreachable
}

; Function Attrs: nounwind uwtable
define dso_local void @FreeExprContext(ptr noundef %0, i1 noundef zeroext %1) #0 {
  %3 = alloca ptr, align 8
  %4 = alloca i8, align 1
  %5 = alloca ptr, align 8
  store ptr %0, ptr %3, align 8
  %6 = zext i1 %1 to i8
  store i8 %6, ptr %4, align 1
  call void @llvm.lifetime.start.p0(i64 8, ptr %5) #6
  %7 = load ptr, ptr %3, align 8
  %8 = load i8, ptr %4, align 1, !range !6, !noundef !7
  %9 = trunc i8 %8 to i1
  call void @ShutdownExprContext(ptr noundef %7, i1 noundef zeroext %9)
  %10 = load ptr, ptr %3, align 8
  %11 = getelementptr inbounds nuw %struct.ExprContext, ptr %10, i32 0, i32 5
  %12 = load ptr, ptr %11, align 8
  call void @MemoryContextDelete(ptr noundef %12)
  %13 = load ptr, ptr %3, align 8
  %14 = getelementptr inbounds nuw %struct.ExprContext, ptr %13, i32 0, i32 16
  %15 = load ptr, ptr %14, align 8
  store ptr %15, ptr %5, align 8
  %16 = load ptr, ptr %5, align 8
  %17 = icmp ne ptr %16, null
  br i1 %17, label %18, label %26

18:                                               ; preds = %2
  %19 = load ptr, ptr %5, align 8
  %20 = getelementptr inbounds nuw %struct.EState, ptr %19, i32 0, i32 32
  %21 = load ptr, ptr %20, align 8
  %22 = load ptr, ptr %3, align 8
  %23 = call ptr @list_delete_ptr(ptr noundef %21, ptr noundef %22)
  %24 = load ptr, ptr %5, align 8
  %25 = getelementptr inbounds nuw %struct.EState, ptr %24, i32 0, i32 32
  store ptr %23, ptr %25, align 8
  br label %26

26:                                               ; preds = %18, %2
  %27 = load ptr, ptr %3, align 8
  call void @pfree(ptr noundef %27)
  call void @llvm.lifetime.end.p0(i64 8, ptr %5) #6
  ret void
}

; Function Attrs: inlinehint nounwind uwtable
define internal ptr @list_nth_cell(ptr noundef %0, i32 noundef %1) #3 {
  %3 = alloca ptr, align 8
  %4 = alloca i32, align 4
  store ptr %0, ptr %3, align 8
  store i32 %1, ptr %4, align 4
  %5 = load ptr, ptr %3, align 8
  %6 = getelementptr inbounds nuw %struct.List, ptr %5, i32 0, i32 3
  %7 = load ptr, ptr %6, align 8
  %8 = load i32, ptr %4, align 4
  %9 = sext i32 %8 to i64
  %10 = getelementptr inbounds %union.ListCell, ptr %7, i64 %9
  ret ptr %10
}

; Function Attrs: nounwind uwtable
define dso_local void @FreeExecutorState(ptr noundef %0) #0 {
  %2 = alloca ptr, align 8
  store ptr %0, ptr %2, align 8
  br label %3

3:                                                ; preds = %8, %1
  %4 = load ptr, ptr %2, align 8
  %5 = getelementptr inbounds nuw %struct.EState, ptr %4, i32 0, i32 32
  %6 = load ptr, ptr %5, align 8
  %7 = icmp ne ptr %6, null
  br i1 %7, label %8, label %14

8:                                                ; preds = %3
  %9 = load ptr, ptr %2, align 8
  %10 = getelementptr inbounds nuw %struct.EState, ptr %9, i32 0, i32 32
  %11 = load ptr, ptr %10, align 8
  %12 = call ptr @list_nth_cell(ptr noundef %11, i32 noundef 0)
  %13 = load ptr, ptr %12, align 8
  call void @FreeExprContext(ptr noundef %13, i1 noundef zeroext true)
  br label %3, !llvm.loop !4

14:                                               ; preds = %3
  %15 = load ptr, ptr %2, align 8
  %16 = getelementptr inbounds nuw %struct.EState, ptr %15, i32 0, i32 42
  %17 = load ptr, ptr %16, align 8
  %18 = icmp ne ptr %17, null
  br i1 %18, label %19, label %25

19:                                               ; preds = %14
  %20 = load ptr, ptr %2, align 8
  %21 = getelementptr inbounds nuw %struct.EState, ptr %20, i32 0, i32 42
  %22 = load ptr, ptr %21, align 8
  call void @jit_release_context(ptr noundef %22)
  %23 = load ptr, ptr %2, align 8
  %24 = getelementptr inbounds nuw %struct.EState, ptr %23, i32 0, i32 42
  store ptr null, ptr %24, align 8
  br label %25

25:                                               ; preds = %19, %14
  %26 = load ptr, ptr %2, align 8
  %27 = getelementptr inbounds nuw %struct.EState, ptr %26, i32 0, i32 19
  %28 = load ptr, ptr %27, align 8
  %29 = icmp ne ptr %28, null
  br i1 %29, label %30, label %36

30:                                               ; preds = %25
  %31 = load ptr, ptr %2, align 8
  %32 = getelementptr inbounds nuw %struct.EState, ptr %31, i32 0, i32 19
  %33 = load ptr, ptr %32, align 8
  call void @DestroyPartitionDirectory(ptr noundef %33)
  %34 = load ptr, ptr %2, align 8
  %35 = getelementptr inbounds nuw %struct.EState, ptr %34, i32 0, i32 19
  store ptr null, ptr %35, align 8
  br label %36

36:                                               ; preds = %30, %25
  %37 = load ptr, ptr %2, align 8
  %38 = getelementptr inbounds nuw %struct.EState, ptr %37, i32 0, i32 25
  %39 = load ptr, ptr %38, align 8
  call void @MemoryContextDelete(ptr noundef %39)
  ret void
}