; Function Attrs: nounwind uwtable
define dso_local void @FreeExecutorState(ptr noundef captures(none) %0) local_unnamed_addr #0 {
  %2 = getelementptr inbounds nuw i8, ptr %0, i64 240
  %3 = load ptr, ptr %2, align 8
  %.not13 = icmp eq ptr %3, null
  br i1 %.not13, label %._crit_edge, label %.lr.ph

.lr.ph:                                           ; preds = %1, %FreeExprContext.exit
  %4 = phi ptr [ %28, %FreeExprContext.exit ], [ %3, %1 ]
  %5 = getelementptr i8, ptr %4, i64 16
  %.val = load ptr, ptr %5, align 8
  %6 = load ptr, ptr %.val, align 8
  %7 = getelementptr inbounds nuw i8, ptr %6, i64 136
  %8 = load ptr, ptr %7, align 8
  %9 = icmp eq ptr %8, null
  br i1 %9, label %ShutdownExprContext.exit.i, label %.lr.ph.i.i

.lr.ph.i.i:                                       ; preds = %.lr.ph
  %10 = getelementptr inbounds nuw i8, ptr %6, i64 40
  %11 = load ptr, ptr %10, align 8
  %12 = load ptr, ptr @CurrentMemoryContext, align 8
  store ptr %11, ptr @CurrentMemoryContext, align 8
  br label %.lr.ph.split.us.i.i

.lr.ph.split.us.i.i:                              ; preds = %.lr.ph.split.us.i.i, %.lr.ph.i.i
  %13 = phi ptr [ %19, %.lr.ph.split.us.i.i ], [ %8, %.lr.ph.i.i ]
  %14 = load ptr, ptr %13, align 8
  store ptr %14, ptr %7, align 8
  %15 = getelementptr inbounds nuw i8, ptr %13, i64 8
  %16 = load ptr, ptr %15, align 8
  %17 = getelementptr inbounds nuw i8, ptr %13, i64 16
  %18 = load i64, ptr %17, align 8
  tail call void %16(i64 noundef %18) #12
  tail call void @pfree(ptr noundef nonnull %13) #12
  %19 = load ptr, ptr %7, align 8
  %.not.us.i.i = icmp eq ptr %19, null
  br i1 %.not.us.i.i, label %._crit_edge.i.i, label %.lr.ph.split.us.i.i, !llvm.loop !4

._crit_edge.i.i:                                  ; preds = %.lr.ph.split.us.i.i
  store ptr %12, ptr @CurrentMemoryContext, align 8
  br label %ShutdownExprContext.exit.i

ShutdownExprContext.exit.i:                       ; preds = %._crit_edge.i.i, %.lr.ph
  %20 = getelementptr inbounds nuw i8, ptr %6, i64 40
  %21 = load ptr, ptr %20, align 8
  tail call void @MemoryContextDelete(ptr noundef %21) #12
  %22 = getelementptr inbounds nuw i8, ptr %6, i64 128
  %23 = load ptr, ptr %22, align 8
  %.not.i = icmp eq ptr %23, null
  br i1 %.not.i, label %FreeExprContext.exit, label %24

24:                                               ; preds = %ShutdownExprContext.exit.i
  %25 = getelementptr inbounds nuw i8, ptr %23, i64 240
  %26 = load ptr, ptr %25, align 8
  %27 = tail call ptr @list_delete_ptr(ptr noundef %26, ptr noundef nonnull %6) #12
  store ptr %27, ptr %25, align 8
  br label %FreeExprContext.exit

FreeExprContext.exit:                             ; preds = %ShutdownExprContext.exit.i, %24
  tail call void @pfree(ptr noundef nonnull %6) #12
  %28 = load ptr, ptr %2, align 8
  %.not = icmp eq ptr %28, null
  br i1 %.not, label %._crit_edge, label %.lr.ph, !llvm.loop !6

._crit_edge:                                      ; preds = %FreeExprContext.exit, %1
  %29 = getelementptr inbounds nuw i8, ptr %0, i64 312
  %30 = load ptr, ptr %29, align 8
  %.not11 = icmp eq ptr %30, null
  br i1 %.not11, label %32, label %31

31:                                               ; preds = %._crit_edge
  tail call void @jit_release_context(ptr noundef nonnull %30) #12
  store ptr null, ptr %29, align 8
  br label %32

32:                                               ; preds = %31, %._crit_edge
  %33 = getelementptr inbounds nuw i8, ptr %0, i64 144
  %34 = load ptr, ptr %33, align 8
  %.not12 = icmp eq ptr %34, null
  br i1 %.not12, label %36, label %35

35:                                               ; preds = %32
  tail call void @DestroyPartitionDirectory(ptr noundef nonnull %34) #12
  store ptr null, ptr %33, align 8
  br label %36

36:                                               ; preds = %35, %32
  %37 = getelementptr inbounds nuw i8, ptr %0, i64 192
  %38 = load ptr, ptr %37, align 8
  tail call void @MemoryContextDelete(ptr noundef %38) #12
  ret void
}